; Function Attrs: nofree norecurse nosync nounwind memory(readwrite, inaccessiblemem: none) uwtable
define void @Acb_ObjSuppMin(ptr noundef readonly captures(none) %0, i32 noundef %1) local_unnamed_addr #1 {
  br label %3

3:                                                ; preds = %3, %2
  %4 = tail call i32 @Acb_ObjSuppMin_int(ptr noundef %0, i32 noundef %1)
  %.not = icmp eq i32 %4, 0
  br i1 %.not, label %5, label %3, !llvm.loop !28

5:                                                ; preds = %3
  ret void
}